; Function Attrs: mustprogress uwtable
define hidden void @_ZN3smt12model_finder10push_scopeEv(ptr noundef nonnull align 8 dereferenceable(128) %this) local_unnamed_addr #3 align 2 {
entry:
  %m_scopes = getelementptr inbounds i8, ptr %this, i64 104
  %0 = load ptr, ptr %m_scopes, align 8
  %cmp.i = icmp eq ptr %0, null
  br i1 %cmp.i, label %if.then.i, label %lor.lhs.false.i

lor.lhs.false.i:                                  ; preds = %entry
  %arrayidx.i = getelementptr inbounds i8, ptr %0, i64 -4
  %1 = load i32, ptr %arrayidx.i, align 4
  %arrayidx4.i = getelementptr inbounds i8, ptr %0, i64 -8
  %2 = load i32, ptr %arrayidx4.i, align 4
  %cmp5.i = icmp eq i32 %1, %2
  br i1 %cmp5.i, label %if.then.i, label %_ZN6vectorIN3smt12model_finder5scopeELb0EjE9push_backEOS2_.exit

if.then.i:                                        ; preds = %lor.lhs.false.i, %entry
  tail call void @_ZN6vectorIN3smt12model_finder5scopeELb0EjE13expand_vectorEv(ptr noundef nonnull align 8 dereferenceable(8) %m_scopes)
  %.pre.i = load ptr, ptr %m_scopes, align 8
  %arrayidx8.phi.trans.insert.i = getelementptr inbounds i8, ptr %.pre.i, i64 -4
  %.pre1.i = load i32, ptr %arrayidx8.phi.trans.insert.i, align 4
  br label %_ZN6vectorIN3smt12model_finder5scopeELb0EjE9push_backEOS2_.exit

_ZN6vectorIN3smt12model_finder5scopeELb0EjE9push_backEOS2_.exit: ; preds = %lor.lhs.false.i, %if.then.i
  %3 = phi i32 [ %.pre1.i, %if.then.i ], [ %1, %lor.lhs.false.i ]
  %4 = phi ptr [ %.pre.i, %if.then.i ], [ %0, %lor.lhs.false.i ]
  %idx.ext.i = zext i32 %3 to i64
  %add.ptr.i = getelementptr inbounds %"struct.smt::model_finder::scope", ptr %4, i64 %idx.ext.i
  store i32 0, ptr %add.ptr.i, align 4
  %5 = load ptr, ptr %m_scopes, align 8
  %arrayidx10.i = getelementptr inbounds i8, ptr %5, i64 -4
  %6 = load i32, ptr %arrayidx10.i, align 4
  %inc.i = add i32 %6, 1
  store i32 %inc.i, ptr %arrayidx10.i, align 4
  %7 = load ptr, ptr %m_scopes, align 8
  %cmp.i.i = icmp eq ptr %7, null
  br i1 %cmp.i.i, label %_ZN6vectorIN3smt12model_finder5scopeELb0EjE4backEv.exit, label %if.end.i.i

if.end.i.i:                                       ; preds = %_ZN6vectorIN3smt12model_finder5scopeELb0EjE9push_backEOS2_.exit
  %arrayidx.i.i = getelementptr inbounds i8, ptr %7, i64 -4
  %8 = load i32, ptr %arrayidx.i.i, align 4
  %9 = add i32 %8, -1
  %10 = zext i32 %9 to i64
  br label %_ZN6vectorIN3smt12model_finder5scopeELb0EjE4backEv.exit

_ZN6vectorIN3smt12model_finder5scopeELb0EjE4backEv.exit: ; preds = %_ZN6vectorIN3smt12model_finder5scopeELb0EjE9push_backEOS2_.exit, %if.end.i.i
  %retval.0.i.i = phi i64 [ %10, %if.end.i.i ], [ 4294967295, %_ZN6vectorIN3smt12model_finder5scopeELb0EjE9push_backEOS2_.exit ]
  %m_quantifiers = getelementptr inbounds i8, ptr %this, i64 64
  %11 = load ptr, ptr %m_quantifiers, align 8
  %cmp.i1 = icmp eq ptr %11, null
  br i1 %cmp.i1, label %_ZNK6vectorIP10quantifierLb0EjE4sizeEv.exit, label %if.end.i

if.end.i:                                         ; preds = %_ZN6vectorIN3smt12model_finder5scopeELb0EjE4backEv.exit
  %arrayidx.i2 = getelementptr inbounds i8, ptr %11, i64 -4
  %12 = load i32, ptr %arrayidx.i2, align 4
  br label %_ZNK6vectorIP10quantifierLb0EjE4sizeEv.exit

_ZNK6vectorIP10quantifierLb0EjE4sizeEv.exit:      ; preds = %_ZN6vectorIN3smt12model_finder5scopeELb0EjE4backEv.exit, %if.end.i
  %retval.0.i = phi i32 [ %12, %if.end.i ], [ 0, %_ZN6vectorIN3smt12model_finder5scopeELb0EjE4backEv.exit ]
  %arrayidx.i1.i = getelementptr inbounds %"struct.smt::model_finder::scope", ptr %7, i64 %retval.0.i.i
  store i32 %retval.0.i, ptr %arrayidx.i1.i, align 4
  ret void
}